; Function Attrs: mustprogress uwtable
define dso_local noundef nonnull align 8 dereferenceable(8) ptr @_ZN7doctest5ColorlsERSoNS0_4EnumE(ptr noundef nonnull returned align 8 dereferenceable(8) %0, i32 noundef %1) local_unnamed_addr #8 {
  %3 = load i8, ptr @_ZN7doctest6detail11g_no_colorsE, align 1, !tbaa !10, !range !22, !noundef !23
  %4 = trunc nuw i8 %3 to i1
  br i1 %4, label %_ZN7doctest12_GLOBAL__N_115color_to_streamERSoNS_5Color4EnumE.exit, label %5

5:                                                ; preds = %2
  %6 = tail call i32 @isatty(i32 noundef 1) #49
  %7 = icmp eq i32 %6, 0
  br i1 %7, label %8, label %13

8:                                                ; preds = %5
  %9 = load ptr, ptr @_ZN7doctest6detail4g_csE, align 8, !tbaa !73
  %10 = getelementptr inbounds nuw i8, ptr %9, i64 120
  %11 = load i8, ptr %10, align 8, !tbaa !75, !range !22, !noundef !23
  %12 = icmp eq i8 %11, 0
  br i1 %12, label %_ZN7doctest12_GLOBAL__N_115color_to_streamERSoNS_5Color4EnumE.exit, label %13

13:                                               ; preds = %8, %5
  %switch.tableidx = add i32 %1, -2
  %14 = icmp ult i32 %switch.tableidx, 22
  br i1 %14, label %switch.lookup, label %16

switch.lookup:                                    ; preds = %13
  %15 = zext nneg i32 %switch.tableidx to i64
  %switch.gep = getelementptr inbounds nuw [22 x ptr], ptr @switch.table._ZN7doctest5ColorlsERSoNS0_4EnumE, i64 0, i64 %15
  %switch.load = load ptr, ptr %switch.gep, align 8
  br label %16

16:                                               ; preds = %13, %switch.lookup
  %.0.i = phi ptr [ %switch.load, %switch.lookup ], [ @.str.221, %13 ]
  %17 = tail call noundef nonnull align 8 dereferenceable(8) ptr @_ZSt16__ostream_insertIcSt11char_traitsIcEERSt13basic_ostreamIT_T0_ES6_PKS3_l(ptr noundef nonnull align 8 dereferenceable(8) %0, ptr noundef nonnull @.str.222, i64 noundef 1)
  %18 = tail call noundef i64 @strlen(ptr noundef nonnull dereferenceable(1) %.0.i) #49
  %19 = tail call noundef nonnull align 8 dereferenceable(8) ptr @_ZSt16__ostream_insertIcSt11char_traitsIcEERSt13basic_ostreamIT_T0_ES6_PKS3_l(ptr noundef nonnull align 8 dereferenceable(8) %0, ptr noundef nonnull %.0.i, i64 noundef %18)
  br label %_ZN7doctest12_GLOBAL__N_115color_to_streamERSoNS_5Color4EnumE.exit

_ZN7doctest12_GLOBAL__N_115color_to_streamERSoNS_5Color4EnumE.exit: ; preds = %2, %8, %16
  ret ptr %0
}